target datalayout = "e-m:e-p270:32:32-p271:32:32-p272:64:64-i64:64-f80:128-n8:16:32:64-S128"
target triple = "x86_64-pc-linux-gnu"

@.str = private unnamed_addr constant [3 x i8] c"%d\00", align 1
@.str.1 = private unnamed_addr constant [3 x i8] c"%s\00", align 1
@.str.2 = private unnamed_addr constant [3 x i8] c"NO\00", align 1
@.str.3 = private unnamed_addr constant [4 x i8] c"%d\0A\00", align 1
@.str.4 = private unnamed_addr constant [3 x i8] c"%c\00", align 1
@.str.5 = private unnamed_addr constant [2 x i8] c"\0A\00", align 1

; Function Attrs: noinline nounwind uwtable
define dso_local void @main() #0 {
  %1 = alloca i32, align 4
  %2 = alloca i32, align 4
  %3 = alloca i32, align 4
  %4 = alloca i32, align 4
  %5 = alloca i32, align 4
  %6 = alloca [1000 x i8], align 16
  %7 = alloca [1000 x i32], align 16
  %8 = bitcast [1000 x i32]* %7 to i8*
  call void @llvm.memset.p0i8.i64(i8* align 16 %8, i8 0, i64 4000, i1 false)
  %9 = call i32 (i8*, ...) @__isoc99_scanf(i8* getelementptr inbounds ([3 x i8], [3 x i8]* @.str, i64 0, i64 0), i32* %5)
  %10 = getelementptr inbounds [1000 x i8], [1000 x i8]* %6, i64 0, i64 0
  %11 = call i32 (i8*, ...) @__isoc99_scanf(i8* getelementptr inbounds ([3 x i8], [3 x i8]* @.str.1, i64 0, i64 0), i8* %10)
  store i32 0, i32* %1, align 4
  br label %12

12:                                               ; preds = %73, %0
  %13 = load i32, i32* %1, align 4
  %14 = sext i32 %13 to i64
  %15 = getelementptr inbounds [1000 x i8], [1000 x i8]* %6, i64 0, i64 0
  %16 = call i64 @strlen(i8* %15) #4
  %17 = load i32, i32* %5, align 4
  %18 = sext i32 %17 to i64
  %19 = sub i64 %16, %18
  %20 = icmp ule i64 %14, %19
  br i1 %20, label %21, label %76

21:                                               ; preds = %12
  %22 = load i32, i32* %1, align 4
  store i32 %22, i32* %2, align 4
  br label %23

23:                                               ; preds = %69, %21
  %24 = load i32, i32* %2, align 4
  %25 = sext i32 %24 to i64
  %26 = getelementptr inbounds [1000 x i8], [1000 x i8]* %6, i64 0, i64 0
  %27 = call i64 @strlen(i8* %26) #4
  %28 = load i32, i32* %5, align 4
  %29 = sext i32 %28 to i64
  %30 = sub i64 %27, %29
  %31 = icmp ule i64 %25, %30
  br i1 %31, label %32, label %72

32:                                               ; preds = %23
  store i32 1, i32* %4, align 4
  store i32 0, i32* %3, align 4
  br label %33

33:                                               ; preds = %56, %32
  %34 = load i32, i32* %3, align 4
  %35 = load i32, i32* %5, align 4
  %36 = sub nsw i32 %35, 1
  %37 = icmp sle i32 %34, %36
  br i1 %37, label %38, label %59

38:                                               ; preds = %33
  %39 = load i32, i32* %1, align 4
  %40 = load i32, i32* %3, align 4
  %41 = add nsw i32 %39, %40
  %42 = sext i32 %41 to i64
  %43 = getelementptr inbounds [1000 x i8], [1000 x i8]* %6, i64 0, i64 %42
  %44 = load i8, i8* %43, align 1
  %45 = sext i8 %44 to i32
  %46 = load i32, i32* %2, align 4
  %47 = load i32, i32* %3, align 4
  %48 = add nsw i32 %46, %47
  %49 = sext i32 %48 to i64
  %50 = getelementptr inbounds [1000 x i8], [1000 x i8]* %6, i64 0, i64 %49
  %51 = load i8, i8* %50, align 1
  %52 = sext i8 %51 to i32
  %53 = icmp ne i32 %45, %52
  br i1 %53, label %54, label %55

54:                                               ; preds = %38
  store i32 0, i32* %4, align 4
  br label %55

55:                                               ; preds = %54, %38
  br label %56

56:                                               ; preds = %55
  %57 = load i32, i32* %3, align 4
  %58 = add nsw i32 %57, 1
  store i32 %58, i32* %3, align 4
  br label %33

59:                                               ; preds = %33
  %60 = load i32, i32* %4, align 4
  %61 = icmp eq i32 %60, 1
  br i1 %61, label %62, label %68

62:                                               ; preds = %59
  %63 = load i32, i32* %1, align 4
  %64 = sext i32 %63 to i64
  %65 = getelementptr inbounds [1000 x i32], [1000 x i32]* %7, i64 0, i64 %64
  %66 = load i32, i32* %65, align 4
  %67 = add nsw i32 %66, 1
  store i32 %67, i32* %65, align 4
  br label %68

68:                                               ; preds = %62, %59
  br label %69

69:                                               ; preds = %68
  %70 = load i32, i32* %2, align 4
  %71 = add nsw i32 %70, 1
  store i32 %71, i32* %2, align 4
  br label %23

72:                                               ; preds = %23
  br label %73

73:                                               ; preds = %72
  %74 = load i32, i32* %1, align 4
  %75 = add nsw i32 %74, 1
  store i32 %75, i32* %1, align 4
  br label %12

76:                                               ; preds = %12
  store i32 1, i32* %1, align 4
  store i32 0, i32* %3, align 4
  br label %77

77:                                               ; preds = %99, %76
  %78 = load i32, i32* %1, align 4
  %79 = sext i32 %78 to i64
  %80 = getelementptr inbounds [1000 x i8], [1000 x i8]* %6, i64 0, i64 0
  %81 = call i64 @strlen(i8* %80) #4
  %82 = load i32, i32* %5, align 4
  %83 = sext i32 %82 to i64
  %84 = sub i64 %81, %83
  %85 = icmp ule i64 %79, %84
  br i1 %85, label %86, label %102

86:                                               ; preds = %77
  %87 = load i32, i32* %1, align 4
  %88 = sext i32 %87 to i64
  %89 = getelementptr inbounds [1000 x i32], [1000 x i32]* %7, i64 0, i64 %88
  %90 = load i32, i32* %89, align 4
  %91 = load i32, i32* %3, align 4
  %92 = sext i32 %91 to i64
  %93 = getelementptr inbounds [1000 x i32], [1000 x i32]* %7, i64 0, i64 %92
  %94 = load i32, i32* %93, align 4
  %95 = icmp sgt i32 %90, %94
  br i1 %95, label %96, label %98

96:                                               ; preds = %86
  %97 = load i32, i32* %1, align 4
  store i32 %97, i32* %3, align 4
  br label %98

98:                                               ; preds = %96, %86
  br label %99

99:                                               ; preds = %98
  %100 = load i32, i32* %1, align 4
  %101 = add nsw i32 %100, 1
  store i32 %101, i32* %1, align 4
  br label %77

102:                                              ; preds = %77
  %103 = load i32, i32* %3, align 4
  %104 = sext i32 %103 to i64
  %105 = getelementptr inbounds [1000 x i32], [1000 x i32]* %7, i64 0, i64 %104
  %106 = load i32, i32* %105, align 4
  %107 = icmp eq i32 %106, 1
  br i1 %107, label %108, label %110

108:                                              ; preds = %102
  %109 = call i32 (i8*, ...) @printf(i8* getelementptr inbounds ([3 x i8], [3 x i8]* @.str.2, i64 0, i64 0))
  br label %161

110:                                              ; preds = %102
  %111 = load i32, i32* %3, align 4
  %112 = sext i32 %111 to i64
  %113 = getelementptr inbounds [1000 x i32], [1000 x i32]* %7, i64 0, i64 %112
  %114 = load i32, i32* %113, align 4
  %115 = call i32 (i8*, ...) @printf(i8* getelementptr inbounds ([4 x i8], [4 x i8]* @.str.3, i64 0, i64 0), i32 %114)
  store i32 0, i32* %1, align 4
  br label %116

116:                                              ; preds = %157, %110
  %117 = load i32, i32* %1, align 4
  %118 = sext i32 %117 to i64
  %119 = getelementptr inbounds [1000 x i8], [1000 x i8]* %6, i64 0, i64 0
  %120 = call i64 @strlen(i8* %119) #4
  %121 = load i32, i32* %5, align 4
  %122 = sext i32 %121 to i64
  %123 = sub i64 %120, %122
  %124 = icmp ule i64 %118, %123
  br i1 %124, label %125, label %160

125:                                              ; preds = %116
  %126 = load i32, i32* %1, align 4
  %127 = sext i32 %126 to i64
  %128 = getelementptr inbounds [1000 x i32], [1000 x i32]* %7, i64 0, i64 %127
  %129 = load i32, i32* %128, align 4
  %130 = load i32, i32* %3, align 4
  %131 = sext i32 %130 to i64
  %132 = getelementptr inbounds [1000 x i32], [1000 x i32]* %7, i64 0, i64 %131
  %133 = load i32, i32* %132, align 4
  %134 = icmp eq i32 %129, %133
  br i1 %134, label %135, label %156

135:                                              ; preds = %125
  %136 = load i32, i32* %1, align 4
  store i32 %136, i32* %2, align 4
  br label %137

137:                                              ; preds = %151, %135
  %138 = load i32, i32* %2, align 4
  %139 = load i32, i32* %1, align 4
  %140 = load i32, i32* %5, align 4
  %141 = add nsw i32 %139, %140
  %142 = sub nsw i32 %141, 1
  %143 = icmp sle i32 %138, %142
  br i1 %143, label %144, label %154

144:                                              ; preds = %137
  %145 = load i32, i32* %2, align 4
  %146 = sext i32 %145 to i64
  %147 = getelementptr inbounds [1000 x i8], [1000 x i8]* %6, i64 0, i64 %146
  %148 = load i8, i8* %147, align 1
  %149 = sext i8 %148 to i32
  %150 = call i32 (i8*, ...) @printf(i8* getelementptr inbounds ([3 x i8], [3 x i8]* @.str.4, i64 0, i64 0), i32 %149)
  br label %151

151:                                              ; preds = %144
  %152 = load i32, i32* %2, align 4
  %153 = add nsw i32 %152, 1
  store i32 %153, i32* %2, align 4
  br label %137

154:                                              ; preds = %137
  %155 = call i32 (i8*, ...) @printf(i8* getelementptr inbounds ([2 x i8], [2 x i8]* @.str.5, i64 0, i64 0))
  br label %156

156:                                              ; preds = %154, %125
  br label %157

157:                                              ; preds = %156
  %158 = load i32, i32* %1, align 4
  %159 = add nsw i32 %158, 1
  store i32 %159, i32* %1, align 4
  br label %116

160:                                              ; preds = %116
  br label %161

161:                                              ; preds = %160, %108
  ret void
}